; Function Attrs: mustprogress nofree norecurse nosync nounwind willreturn memory(argmem: read) uwtable
define <2 x float> @_ZNK32pxrInternal_v0_24__pxrReserved__11GfDualQuatf9GetLengthEv(ptr noundef nonnull readonly align 4 captures(none) dereferenceable(32) %0) local_unnamed_addr #2 align 2 {
  %2 = load float, ptr %0, align 4
  %3 = getelementptr inbounds nuw i8, ptr %0, i64 4
  %4 = load float, ptr %3, align 4
  %5 = fmul float %4, %4
  %6 = tail call float @llvm.fmuladd.f32(float %2, float %2, float %5)
  %7 = getelementptr inbounds nuw i8, ptr %0, i64 8
  %8 = load float, ptr %7, align 4
  %9 = tail call noundef float @llvm.fmuladd.f32(float %8, float %8, float %6)
  %10 = getelementptr inbounds nuw i8, ptr %0, i64 12
  %11 = load float, ptr %10, align 4
  %12 = tail call noundef float @llvm.fmuladd.f32(float %11, float %11, float %9)
  %13 = fcmp oeq float %12, 0.000000e+00
  br i1 %13, label %28, label %14

14:                                               ; preds = %1
  %sqrt.i = tail call noundef float @llvm.sqrt.f32(float %12)
  %15 = getelementptr inbounds nuw i8, ptr %0, i64 16
  %16 = load float, ptr %15, align 4
  %17 = getelementptr inbounds nuw i8, ptr %0, i64 20
  %18 = load float, ptr %17, align 4
  %19 = fmul float %4, %18
  %20 = tail call float @llvm.fmuladd.f32(float %2, float %16, float %19)
  %21 = getelementptr inbounds nuw i8, ptr %0, i64 24
  %22 = load float, ptr %21, align 4
  %23 = tail call noundef float @llvm.fmuladd.f32(float %8, float %22, float %20)
  %24 = getelementptr inbounds nuw i8, ptr %0, i64 28
  %25 = load float, ptr %24, align 4
  %26 = tail call noundef float @llvm.fmuladd.f32(float %11, float %25, float %23)
  %27 = fdiv float %26, %sqrt.i
  %.sroa.0.0.vec.insert6 = insertelement <2 x float> poison, float %sqrt.i, i64 0
  %.sroa.0.4.vec.insert8 = insertelement <2 x float> %.sroa.0.0.vec.insert6, float %27, i64 1
  br label %28

28:                                               ; preds = %1, %14
  %.sroa.0.0 = phi <2 x float> [ %.sroa.0.4.vec.insert8, %14 ], [ zeroinitializer, %1 ]
  ret <2 x float> %.sroa.0.0
}